target datalayout = "e-m:e-p270:32:32-p271:32:32-p272:64:64-i64:64-i128:128-f80:128-n8:16:32:64-S128"
target triple = "x86_64-pc-linux-gnu"

%struct.QemuMutex = type { %union.pthread_mutex_t, i8 }
%union.pthread_mutex_t = type { %struct.__pthread_mutex_s }
%struct.__pthread_mutex_s = type { i32, i32, i32, i32, i32, i16, i16, %struct.__pthread_internal_list }
%struct.__pthread_internal_list = type { ptr, ptr }
%struct.Job = type { ptr, ptr, ptr, i8, i8, ptr, ptr, %struct.ProgressMeter, ptr, i32, i32, %struct.QEMUTimer, i32, i8, i8, i8, i8, i8, i8, i32, ptr, %struct.NotifierList, %struct.NotifierList, %struct.NotifierList, %struct.NotifierList, %struct.NotifierList, %struct.anon.1, ptr, %struct.anon.2 }
%struct.ProgressMeter = type { i64, i64, %struct.QemuMutex }
%struct.QEMUTimer = type { i64, ptr, ptr, ptr, ptr, i32, i32 }
%struct.NotifierList = type { %struct.anon.0 }
%struct.anon.0 = type { ptr }
%struct.anon.1 = type { ptr, ptr }
%struct.anon.2 = type { ptr, ptr }

@qemu_mutex_lock_func = external global ptr, align 8
@job_mutex = dso_local global %struct.QemuMutex zeroinitializer, align 8
@.str = private unnamed_addr constant [14 x i8] c"../qemu/job.c\00", align 1
@.str.16 = private unnamed_addr constant [10 x i8] c"job->busy\00", align 1
@__PRETTY_FUNCTION__.job_do_yield_locked = private unnamed_addr constant [42 x i8] c"void job_do_yield_locked(Job *, uint64_t)\00", align 1

; Function Attrs: nounwind sspstrong uwtable
define dso_local void @job_lock() #0 {
  %1 = alloca ptr, align 8
  %2 = alloca ptr, align 8
  %3 = alloca ptr, align 8
  call void @llvm.lifetime.start.p0(i64 8, ptr %1) #16
  br label %4

4:                                                ; preds = %0
  br i1 false, label %5, label %6

5:                                                ; preds = %4
  call void @qemu_build_not_reached_always() #17, !srcloc !4
  unreachable

6:                                                ; preds = %4
  %7 = load atomic i64, ptr @qemu_mutex_lock_func monotonic, align 8
  store i64 %7, ptr %3, align 8
  %8 = load ptr, ptr %3, align 8
  store ptr %8, ptr %2, align 8
  %9 = load ptr, ptr %2, align 8
  store ptr %9, ptr %1, align 8
  %10 = load ptr, ptr %1, align 8
  call void %10(ptr noundef @job_mutex, ptr noundef @.str, i32 noundef 101)
  call void @llvm.lifetime.end.p0(i64 8, ptr %1) #16
  ret void
}

; Function Attrs: nounwind sspstrong uwtable
define dso_local void @job_unlock() #0 {
  call void @qemu_mutex_unlock_impl(ptr noundef @job_mutex, ptr noundef @.str, i32 noundef 106)
  ret void
}

; Function Attrs: nounwind sspstrong uwtable
define internal void @job_event_idle_locked(ptr noundef %0) #0 {
  %2 = alloca ptr, align 8
  store ptr %0, ptr %2, align 8
  %3 = load ptr, ptr %2, align 8
  %4 = getelementptr inbounds nuw %struct.Job, ptr %3, i32 0, i32 25
  %5 = load ptr, ptr %2, align 8
  call void @notifier_list_notify(ptr noundef %4, ptr noundef %5)
  ret void
}

; Function Attrs: nounwind sspstrong uwtable
define internal void @job_do_yield_locked(ptr noundef %0, i64 noundef %1) #0 {
  %3 = alloca ptr, align 8
  %4 = alloca i64, align 8
  %5 = alloca ptr, align 8
  store ptr %0, ptr %3, align 8
  store i64 %1, ptr %4, align 8
  call void @llvm.lifetime.start.p0(i64 8, ptr %5) #16
  store ptr null, ptr %5, align 8, !annotation !5
  %6 = load i64, ptr %4, align 8
  %7 = icmp ne i64 %6, -1
  br i1 %7, label %8, label %12

8:                                                ; preds = %2
  %9 = load ptr, ptr %3, align 8
  %10 = getelementptr inbounds nuw %struct.Job, ptr %9, i32 0, i32 11
  %11 = load i64, ptr %4, align 8
  call void @timer_mod(ptr noundef %10, i64 noundef %11)
  br label %12

12:                                               ; preds = %8, %2
  %13 = load ptr, ptr %3, align 8
  %14 = getelementptr inbounds nuw %struct.Job, ptr %13, i32 0, i32 13
  store i8 0, ptr %14, align 4
  %15 = load ptr, ptr %3, align 8
  call void @job_event_idle_locked(ptr noundef %15)
  call void @job_unlock()
  call void @qemu_coroutine_yield()
  call void @job_lock()
  %16 = load ptr, ptr %3, align 8
  %17 = getelementptr inbounds nuw %struct.Job, ptr %16, i32 0, i32 8
  %18 = load ptr, ptr %17, align 8
  store ptr %18, ptr %5, align 8
  br label %19

19:                                               ; preds = %23, %12
  %20 = call ptr @qemu_get_current_aio_context()
  %21 = load ptr, ptr %5, align 8
  %22 = icmp ne ptr %20, %21
  br i1 %22, label %23, label %28

23:                                               ; preds = %19
  call void @job_unlock()
  %24 = load ptr, ptr %5, align 8
  call void @aio_co_reschedule_self(ptr noundef %24)
  call void @job_lock()
  %25 = load ptr, ptr %3, align 8
  %26 = getelementptr inbounds nuw %struct.Job, ptr %25, i32 0, i32 8
  %27 = load ptr, ptr %26, align 8
  store ptr %27, ptr %5, align 8
  br label %19, !llvm.loop !11

28:                                               ; preds = %19
  %29 = load ptr, ptr %3, align 8
  %30 = getelementptr inbounds nuw %struct.Job, ptr %29, i32 0, i32 13
  %31 = load i8, ptr %30, align 4, !range !7, !noundef !8
  %32 = trunc i8 %31 to i1
  br i1 %32, label %33, label %34

33:                                               ; preds = %28
  br label %35

34:                                               ; preds = %28
  call void @__assert_fail(ptr noundef @.str.16, ptr noundef @.str, i32 noundef 599, ptr noundef @__PRETTY_FUNCTION__.job_do_yield_locked) #20
  unreachable

35:                                               ; preds = %33
  call void @llvm.lifetime.end.p0(i64 8, ptr %5) #16
  ret void
}