; Function Attrs: nounwind sspstrong uwtable
define internal void @job_do_yield_locked(ptr noundef %0, i64 noundef %1) #0 {
  %.not = icmp eq i64 %1, -1
  br i1 %.not, label %5, label %3

3:                                                ; preds = %2
  %4 = getelementptr inbounds nuw i8, ptr %0, i64 128
  tail call void @timer_mod(ptr noundef nonnull %4, i64 noundef %1) #15
  br label %5

5:                                                ; preds = %3, %2
  %6 = getelementptr inbounds nuw i8, ptr %0, i64 180
  store i8 0, ptr %6, align 4
  %7 = getelementptr inbounds nuw i8, ptr %0, i64 232
  tail call void @notifier_list_notify(ptr noundef nonnull %7, ptr noundef %0) #15
  tail call void @qemu_mutex_unlock_impl(ptr noundef nonnull @job_mutex, ptr noundef nonnull @.str, i32 noundef 106) #15
  tail call void @qemu_coroutine_yield() #15
  %8 = load atomic i64, ptr @qemu_mutex_lock_func monotonic, align 8
  %9 = inttoptr i64 %8 to ptr
  tail call void %9(ptr noundef nonnull @job_mutex, ptr noundef nonnull @.str, i32 noundef 101) #15
  %10 = getelementptr inbounds nuw i8, ptr %0, i64 112
  %.011 = load ptr, ptr %10, align 8
  %11 = tail call ptr @qemu_get_current_aio_context() #15
  %.not1012 = icmp eq ptr %11, %.011
  br i1 %.not1012, label %._crit_edge, label %.lr.ph

.lr.ph:                                           ; preds = %5, %.lr.ph
  %.013 = phi ptr [ %.0, %.lr.ph ], [ %.011, %5 ]
  tail call void @qemu_mutex_unlock_impl(ptr noundef nonnull @job_mutex, ptr noundef nonnull @.str, i32 noundef 106) #15
  tail call void @aio_co_reschedule_self(ptr noundef %.013) #15
  %12 = load atomic i64, ptr @qemu_mutex_lock_func monotonic, align 8
  %13 = inttoptr i64 %12 to ptr
  tail call void %13(ptr noundef nonnull @job_mutex, ptr noundef nonnull @.str, i32 noundef 101) #15
  %.0 = load ptr, ptr %10, align 8
  %14 = tail call ptr @qemu_get_current_aio_context() #15
  %.not10 = icmp eq ptr %14, %.0
  br i1 %.not10, label %._crit_edge, label %.lr.ph, !llvm.loop !10

._crit_edge:                                      ; preds = %.lr.ph, %5
  %15 = load i8, ptr %6, align 4, !range !4, !noundef !5
  %16 = trunc nuw i8 %15 to i1
  br i1 %16, label %18, label %17

17:                                               ; preds = %._crit_edge
  tail call void @__assert_fail(ptr noundef nonnull @.str.16, ptr noundef nonnull @.str, i32 noundef 599, ptr noundef nonnull @__PRETTY_FUNCTION__.job_do_yield_locked) #17
  unreachable

18:                                               ; preds = %._crit_edge
  ret void
}